; ModuleID = 'source-C-CXX/12/1796.cpp'
source_filename = "source-C-CXX/12/1796.cpp"
target datalayout = "e-m:e-p270:32:32-p271:32:32-p272:64:64-i64:64-f80:128-n8:16:32:64-S128"
target triple = "x86_64-pc-linux-gnu"

%"class.std::ios_base::Init" = type { i8 }
%"class.std::basic_istream" = type { i32 (...)**, i64, %"class.std::basic_ios" }
%"class.std::basic_ios" = type { %"class.std::ios_base", %"class.std::basic_ostream"*, i8, i8, %"class.std::basic_streambuf"*, %"class.std::ctype"*, %"class.std::num_put"*, %"class.std::num_get"* }
%"class.std::ios_base" = type { i32 (...)**, i64, i64, i32, i32, i32, %"struct.std::ios_base::_Callback_list"*, %"struct.std::ios_base::_Words", [8 x %"struct.std::ios_base::_Words"], i32, %"struct.std::ios_base::_Words"*, %"class.std::locale" }
%"struct.std::ios_base::_Callback_list" = type { %"struct.std::ios_base::_Callback_list"*, void (i32, %"class.std::ios_base"*, i32)*, i32, i32 }
%"struct.std::ios_base::_Words" = type { i8*, i64 }
%"class.std::locale" = type { %"class.std::locale::_Impl"* }
%"class.std::locale::_Impl" = type { i32, %"class.std::locale::facet"**, i64, %"class.std::locale::facet"**, i8** }
%"class.std::locale::facet" = type <{ i32 (...)**, i32, [4 x i8] }>
%"class.std::basic_ostream" = type { i32 (...)**, %"class.std::basic_ios" }
%"class.std::basic_streambuf" = type { i32 (...)**, i8*, i8*, i8*, i8*, i8*, i8*, %"class.std::locale" }
%"class.std::ctype" = type <{ %"class.std::locale::facet.base", [4 x i8], %struct.__locale_struct*, i8, [7 x i8], i32*, i32*, i16*, i8, [256 x i8], [256 x i8], i8, [6 x i8] }>
%"class.std::locale::facet.base" = type <{ i32 (...)**, i32 }>
%struct.__locale_struct = type { [13 x %struct.__locale_data*], i16*, i32*, i32*, [13 x i8*] }
%struct.__locale_data = type opaque
%"class.std::num_put" = type { %"class.std::locale::facet.base", [4 x i8] }
%"class.std::num_get" = type { %"class.std::locale::facet.base", [4 x i8] }

@_ZStL8__ioinit = internal global %"class.std::ios_base::Init" zeroinitializer, align 1
@__dso_handle = external hidden global i8
@_ZSt3cin = external global %"class.std::basic_istream", align 8
@_ZSt4cout = external global %"class.std::basic_ostream", align 8
@llvm.global_ctors = appending global [1 x { i32, void ()*, i8* }] [{ i32, void ()*, i8* } { i32 65535, void ()* @_GLOBAL__sub_I_1796.cpp, i8* null }]

declare void @_ZNSt8ios_base4InitC1Ev(%"class.std::ios_base::Init"* nonnull align 1 dereferenceable(1)) unnamed_addr #0

; Function Attrs: nounwind
declare void @_ZNSt8ios_base4InitD1Ev(%"class.std::ios_base::Init"* nonnull align 1 dereferenceable(1)) unnamed_addr #1

; Function Attrs: nofree nounwind
declare i32 @__cxa_atexit(void (i8*)*, i8*, i8*) local_unnamed_addr #2

; Function Attrs: mustprogress norecurse sspstrong uwtable
define dso_local i32 @main() local_unnamed_addr #3 {
  %1 = alloca i8, align 1
  %2 = alloca [20000 x i32], align 16
  %3 = alloca i32, align 4
  %4 = bitcast [20000 x i32]* %2 to i8*
  call void @llvm.lifetime.start.p0i8(i64 80000, i8* nonnull %4) #6
  %5 = bitcast i32* %3 to i8*
  call void @llvm.lifetime.start.p0i8(i64 4, i8* nonnull %5) #6
  %6 = call nonnull align 8 dereferenceable(16) %"class.std::basic_istream"* @_ZNSirsERi(%"class.std::basic_istream"* nonnull align 8 dereferenceable(16) @_ZSt3cin, i32* nonnull align 4 dereferenceable(4) %3)
  %7 = load i32, i32* %3, align 4, !tbaa !5
  %8 = icmp sgt i32 %7, 0
  br i1 %8, label %15, label %79

9:                                                ; preds = %15
  %10 = icmp sgt i32 %20, 0
  br i1 %10, label %11, label %79

11:                                               ; preds = %9
  %12 = zext i32 %20 to i64
  %13 = zext i32 %20 to i64
  %14 = add nsw i64 %13, -2
  br label %29

15:                                               ; preds = %0, %15
  %16 = phi i64 [ %19, %15 ], [ 0, %0 ]
  %17 = getelementptr inbounds [20000 x i32], [20000 x i32]* %2, i64 0, i64 %16
  %18 = call nonnull align 8 dereferenceable(16) %"class.std::basic_istream"* @_ZNSirsERi(%"class.std::basic_istream"* nonnull align 8 dereferenceable(16) @_ZSt3cin, i32* nonnull align 4 dereferenceable(4) %17)
  %19 = add nuw nsw i64 %16, 1
  %20 = load i32, i32* %3, align 4, !tbaa !5
  %21 = sext i32 %20 to i64
  %22 = icmp slt i64 %19, %21
  br i1 %22, label %15, label %9, !llvm.loop !9

23:                                               ; preds = %50, %107, %29
  %24 = add nuw nsw i64 %31, 1
  %25 = icmp eq i64 %32, %13
  br i1 %25, label %26, label %29, !llvm.loop !11

26:                                               ; preds = %23
  br i1 %10, label %27, label %79

27:                                               ; preds = %26
  %28 = zext i32 %20 to i64
  br label %67

29:                                               ; preds = %11, %23
  %30 = phi i64 [ 0, %11 ], [ %32, %23 ]
  %31 = phi i64 [ 1, %11 ], [ %24, %23 ]
  %32 = add nuw nsw i64 %30, 1
  %33 = getelementptr inbounds [20000 x i32], [20000 x i32]* %2, i64 0, i64 %30
  %34 = icmp ult i64 %32, %12
  br i1 %34, label %35, label %23

35:                                               ; preds = %29
  %36 = xor i64 %30, -1
  %37 = add nsw i64 %36, %13
  %38 = and i64 %37, 1
  %39 = icmp eq i64 %38, 0
  br i1 %39, label %50, label %40

40:                                               ; preds = %35
  %41 = getelementptr inbounds [20000 x i32], [20000 x i32]* %2, i64 0, i64 %31
  %42 = load i32, i32* %41, align 4, !tbaa !5
  %43 = icmp eq i32 %42, 0
  br i1 %43, label %48, label %44

44:                                               ; preds = %40
  %45 = load i32, i32* %33, align 4, !tbaa !5
  %46 = icmp eq i32 %42, %45
  br i1 %46, label %47, label %48

47:                                               ; preds = %44
  store i32 0, i32* %41, align 4, !tbaa !5
  br label %48

48:                                               ; preds = %47, %44, %40
  %49 = add nuw nsw i64 %31, 1
  br label %50

50:                                               ; preds = %48, %35
  %51 = phi i64 [ %49, %48 ], [ %31, %35 ]
  %52 = icmp eq i64 %14, %30
  br i1 %52, label %23, label %53

53:                                               ; preds = %50, %107
  %54 = phi i64 [ %108, %107 ], [ %51, %50 ]
  %55 = getelementptr inbounds [20000 x i32], [20000 x i32]* %2, i64 0, i64 %54
  %56 = load i32, i32* %55, align 4, !tbaa !5
  %57 = icmp eq i32 %56, 0
  br i1 %57, label %62, label %58

58:                                               ; preds = %53
  %59 = load i32, i32* %33, align 4, !tbaa !5
  %60 = icmp eq i32 %56, %59
  br i1 %60, label %61, label %62

61:                                               ; preds = %58
  store i32 0, i32* %55, align 4, !tbaa !5
  br label %62

62:                                               ; preds = %53, %58, %61
  %63 = add nuw nsw i64 %54, 1
  %64 = getelementptr inbounds [20000 x i32], [20000 x i32]* %2, i64 0, i64 %63
  %65 = load i32, i32* %64, align 4, !tbaa !5
  %66 = icmp eq i32 %65, 0
  br i1 %66, label %107, label %103

67:                                               ; preds = %27, %76
  %68 = phi i64 [ 0, %27 ], [ %77, %76 ]
  %69 = getelementptr inbounds [20000 x i32], [20000 x i32]* %2, i64 0, i64 %68
  %70 = load i32, i32* %69, align 4, !tbaa !5
  %71 = icmp eq i32 %70, 0
  br i1 %71, label %76, label %72

72:                                               ; preds = %67
  %73 = trunc i64 %68 to i32
  %74 = call nonnull align 8 dereferenceable(8) %"class.std::basic_ostream"* @_ZNSolsEi(%"class.std::basic_ostream"* nonnull align 8 dereferenceable(8) @_ZSt4cout, i32 %70)
  %75 = load i32, i32* %3, align 4, !tbaa !5
  br label %79

76:                                               ; preds = %67
  %77 = add nuw nsw i64 %68, 1
  %78 = icmp eq i64 %77, %28
  br i1 %78, label %79, label %67, !llvm.loop !12

79:                                               ; preds = %76, %9, %0, %26, %72
  %80 = phi i32 [ %75, %72 ], [ %20, %26 ], [ %7, %0 ], [ %20, %9 ], [ %20, %76 ]
  %81 = phi i32 [ %73, %72 ], [ 0, %26 ], [ 0, %0 ], [ 0, %9 ], [ %20, %76 ]
  %82 = add i32 %81, 1
  %83 = icmp slt i32 %82, %80
  br i1 %83, label %84, label %86

84:                                               ; preds = %79
  %85 = zext i32 %82 to i64
  br label %87

86:                                               ; preds = %98, %79
  call void @llvm.lifetime.end.p0i8(i64 4, i8* nonnull %5) #6
  call void @llvm.lifetime.end.p0i8(i64 80000, i8* nonnull %4) #6
  ret i32 0

87:                                               ; preds = %84, %98
  %88 = phi i32 [ %80, %84 ], [ %99, %98 ]
  %89 = phi i64 [ %85, %84 ], [ %100, %98 ]
  %90 = getelementptr inbounds [20000 x i32], [20000 x i32]* %2, i64 0, i64 %89
  %91 = load i32, i32* %90, align 4, !tbaa !5
  %92 = icmp eq i32 %91, 0
  br i1 %92, label %98, label %93

93:                                               ; preds = %87
  call void @llvm.lifetime.start.p0i8(i64 1, i8* nonnull %1)
  store i8 32, i8* %1, align 1, !tbaa !13
  %94 = call nonnull align 8 dereferenceable(8) %"class.std::basic_ostream"* @_ZSt16__ostream_insertIcSt11char_traitsIcEERSt13basic_ostreamIT_T0_ES6_PKS3_l(%"class.std::basic_ostream"* nonnull align 8 dereferenceable(8) @_ZSt4cout, i8* nonnull %1, i64 1)
  call void @llvm.lifetime.end.p0i8(i64 1, i8* nonnull %1)
  %95 = load i32, i32* %90, align 4, !tbaa !5
  %96 = call nonnull align 8 dereferenceable(8) %"class.std::basic_ostream"* @_ZNSolsEi(%"class.std::basic_ostream"* nonnull align 8 dereferenceable(8) %94, i32 %95)
  %97 = load i32, i32* %3, align 4, !tbaa !5
  br label %98

98:                                               ; preds = %87, %93
  %99 = phi i32 [ %88, %87 ], [ %97, %93 ]
  %100 = add nuw nsw i64 %89, 1
  %101 = trunc i64 %100 to i32
  %102 = icmp sgt i32 %99, %101
  br i1 %102, label %87, label %86, !llvm.loop !14

103:                                              ; preds = %62
  %104 = load i32, i32* %33, align 4, !tbaa !5
  %105 = icmp eq i32 %65, %104
  br i1 %105, label %106, label %107

106:                                              ; preds = %103
  store i32 0, i32* %64, align 4, !tbaa !5
  br label %107

107:                                              ; preds = %106, %103, %62
  %108 = add nuw nsw i64 %54, 2
  %109 = icmp eq i64 %108, %13
  br i1 %109, label %23, label %53, !llvm.loop !15
}

; Function Attrs: argmemonly mustprogress nofree nosync nounwind willreturn
declare void @llvm.lifetime.start.p0i8(i64 immarg, i8* nocapture) #4

declare nonnull align 8 dereferenceable(16) %"class.std::basic_istream"* @_ZNSirsERi(%"class.std::basic_istream"* nonnull align 8 dereferenceable(16), i32* nonnull align 4 dereferenceable(4)) local_unnamed_addr #0

; Function Attrs: argmemonly mustprogress nofree nosync nounwind willreturn
declare void @llvm.lifetime.end.p0i8(i64 immarg, i8* nocapture) #4

declare nonnull align 8 dereferenceable(8) %"class.std::basic_ostream"* @_ZNSolsEi(%"class.std::basic_ostream"* nonnull align 8 dereferenceable(8), i32) local_unnamed_addr #0

declare nonnull align 8 dereferenceable(8) %"class.std::basic_ostream"* @_ZSt16__ostream_insertIcSt11char_traitsIcEERSt13basic_ostreamIT_T0_ES6_PKS3_l(%"class.std::basic_ostream"* nonnull align 8 dereferenceable(8), i8*, i64) local_unnamed_addr #0

; Function Attrs: sspstrong uwtable
define internal void @_GLOBAL__sub_I_1796.cpp() #5 section ".text.startup" {
  tail call void @_ZNSt8ios_base4InitC1Ev(%"class.std::ios_base::Init"* nonnull align 1 dereferenceable(1) @_ZStL8__ioinit)
  %1 = tail call i32 @__cxa_atexit(void (i8*)* bitcast (void (%"class.std::ios_base::Init"*)* @_ZNSt8ios_base4InitD1Ev to void (i8*)*), i8* getelementptr inbounds (%"class.std::ios_base::Init", %"class.std::ios_base::Init"* @_ZStL8__ioinit, i64 0, i32 0), i8* nonnull @__dso_handle) #6
  ret void
}


!llvm.module.flags = !{!0, !1, !2, !3}
!llvm.ident = !{!4}

!0 = !{i32 1, !"wchar_size", i32 4}
!1 = !{i32 7, !"PIC Level", i32 2}
!2 = !{i32 7, !"PIE Level", i32 2}
!3 = !{i32 7, !"uwtable", i32 1}
!4 = !{!"clang version 13.0.0"}
!5 = !{!6, !6, i64 0}
!6 = !{!"int", !7, i64 0}
!7 = !{!"omnipotent char", !8, i64 0}
!8 = !{!"Simple C++ TBAA"}
!9 = distinct !{!9, !10}
!10 = !{!"llvm.loop.mustprogress"}
!11 = distinct !{!11, !10}
!12 = distinct !{!12, !10}
!13 = !{!7, !7, i64 0}
!14 = distinct !{!14, !10}
!15 = distinct !{!15, !10}
